; Function Attrs: mustprogress uwtable
define noundef nonnull align 8 dereferenceable(160) ptr @_ZN6icu_7712StringSearchaSERKS0_(ptr noundef nonnull returned align 8 dereferenceable(160) %0, ptr noundef nonnull align 8 dereferenceable(160) %1) local_unnamed_addr #1 align 2 {
  %3 = alloca i32, align 4
  %.not = icmp eq ptr %0, %1
  br i1 %.not, label %57, label %4

4:                                                ; preds = %2
  call void @llvm.lifetime.start.p0(i64 4, ptr nonnull %3) #9
  store i32 0, ptr %3, align 4, !tbaa !6
  %5 = getelementptr inbounds nuw i8, ptr %1, i64 24
  %6 = getelementptr inbounds nuw i8, ptr %0, i64 24
  %7 = tail call noundef nonnull align 8 dereferenceable(64) ptr @_ZN6icu_7713UnicodeStringaSERKS0_(ptr noundef nonnull align 8 dereferenceable(64) %6, ptr noundef nonnull align 8 dereferenceable(64) %5)
  %8 = getelementptr inbounds nuw i8, ptr %1, i64 16
  %9 = load ptr, ptr %8, align 8, !tbaa !36
  %10 = getelementptr inbounds nuw i8, ptr %0, i64 16
  store ptr %9, ptr %10, align 8, !tbaa !36
  %11 = getelementptr inbounds nuw i8, ptr %1, i64 88
  %12 = getelementptr inbounds nuw i8, ptr %0, i64 88
  %13 = tail call noundef nonnull align 8 dereferenceable(64) ptr @_ZN6icu_7713UnicodeStringaSERKS0_(ptr noundef nonnull align 8 dereferenceable(64) %12, ptr noundef nonnull align 8 dereferenceable(64) %11)
  %14 = getelementptr inbounds nuw i8, ptr %0, i64 152
  %15 = load ptr, ptr %14, align 8, !tbaa !9
  tail call void @usearch_close_77(ptr noundef %15)
  %16 = getelementptr inbounds nuw i8, ptr %0, i64 96
  %17 = load i16, ptr %16, align 8, !tbaa !19
  %18 = and i16 %17, 17
  %.not.i = icmp eq i16 %18, 0
  br i1 %.not.i, label %19, label %_ZNK6icu_7713UnicodeString9getBufferEv.exit

19:                                               ; preds = %4
  %20 = and i16 %17, 2
  %.not2.i = icmp eq i16 %20, 0
  br i1 %.not2.i, label %23, label %21

21:                                               ; preds = %19
  %22 = getelementptr inbounds nuw i8, ptr %0, i64 98
  br label %_ZNK6icu_7713UnicodeString9getBufferEv.exit

23:                                               ; preds = %19
  %24 = getelementptr inbounds nuw i8, ptr %0, i64 112
  %25 = load ptr, ptr %24, align 8, !tbaa !19
  br label %_ZNK6icu_7713UnicodeString9getBufferEv.exit

_ZNK6icu_7713UnicodeString9getBufferEv.exit:      ; preds = %4, %21, %23
  %.0.i = phi ptr [ %22, %21 ], [ %25, %23 ], [ null, %4 ]
  %26 = icmp slt i16 %17, 0
  %27 = ashr i16 %17, 5
  %28 = sext i16 %27 to i32
  %29 = getelementptr inbounds nuw i8, ptr %0, i64 100
  %30 = load i32, ptr %29, align 4
  %31 = select i1 %26, i32 %30, i32 %28
  %32 = getelementptr inbounds nuw i8, ptr %0, i64 32
  %33 = load i16, ptr %32, align 8, !tbaa !19
  %34 = and i16 %33, 17
  %.not.i9 = icmp eq i16 %34, 0
  br i1 %.not.i9, label %35, label %_ZNK6icu_7713UnicodeString9getBufferEv.exit12

35:                                               ; preds = %_ZNK6icu_7713UnicodeString9getBufferEv.exit
  %36 = and i16 %33, 2
  %.not2.i11 = icmp eq i16 %36, 0
  br i1 %.not2.i11, label %39, label %37

37:                                               ; preds = %35
  %38 = getelementptr inbounds nuw i8, ptr %0, i64 34
  br label %_ZNK6icu_7713UnicodeString9getBufferEv.exit12

39:                                               ; preds = %35
  %40 = getelementptr inbounds nuw i8, ptr %0, i64 48
  %41 = load ptr, ptr %40, align 8, !tbaa !19
  br label %_ZNK6icu_7713UnicodeString9getBufferEv.exit12

_ZNK6icu_7713UnicodeString9getBufferEv.exit12:    ; preds = %_ZNK6icu_7713UnicodeString9getBufferEv.exit, %37, %39
  %.0.i10 = phi ptr [ %38, %37 ], [ %41, %39 ], [ null, %_ZNK6icu_7713UnicodeString9getBufferEv.exit ]
  %42 = icmp slt i16 %33, 0
  %43 = ashr i16 %33, 5
  %44 = sext i16 %43 to i32
  %45 = getelementptr inbounds nuw i8, ptr %0, i64 36
  %46 = load i32, ptr %45, align 4
  %47 = select i1 %42, i32 %46, i32 %44
  %48 = getelementptr inbounds nuw i8, ptr %1, i64 152
  %49 = load ptr, ptr %48, align 8, !tbaa !9
  %50 = getelementptr inbounds nuw i8, ptr %49, i64 3128
  %51 = load ptr, ptr %50, align 8, !tbaa !37
  %52 = call ptr @usearch_openFromCollator_77(ptr noundef %.0.i, i32 noundef %31, ptr noundef %.0.i10, i32 noundef %47, ptr noundef %51, ptr noundef null, ptr noundef nonnull %3)
  store ptr %52, ptr %14, align 8, !tbaa !9
  %.not8 = icmp eq ptr %52, null
  br i1 %.not8, label %56, label %53

53:                                               ; preds = %_ZNK6icu_7713UnicodeString9getBufferEv.exit12
  %54 = load ptr, ptr %52, align 8, !tbaa !25
  %55 = getelementptr inbounds nuw i8, ptr %0, i64 8
  store ptr %54, ptr %55, align 8, !tbaa !24
  br label %56

56:                                               ; preds = %53, %_ZNK6icu_7713UnicodeString9getBufferEv.exit12
  call void @llvm.lifetime.end.p0(i64 4, ptr nonnull %3) #9
  br label %57

57:                                               ; preds = %56, %2
  ret ptr %0
}